target datalayout = "e-m:e-p270:32:32-p271:32:32-p272:64:64-i64:64-i128:128-f80:128-n8:16:32:64-S128"
target triple = "x86_64-pc-linux-gnu"

%struct.OSQPScaling = type { double, ptr, ptr, double, ptr, ptr }

@.str.65 = private unnamed_addr constant [21 x i8] c"  (OSQPFloat)%.20f,\0A\00", align 1
@.str.67 = private unnamed_addr constant [5 x i8] c"};\0A\0A\00", align 1
@.str.86 = private unnamed_addr constant [101 x i8] c"generated/home/dtcxzyw/WorkSpace/Projects/compilers/llvm-opt-benchmark/bench/osqp/osqp/src/codegen.c\00", align 1
@__func__.write_scaling = private unnamed_addr constant [14 x i8] c"write_scaling\00", align 1
@.str.224 = private unnamed_addr constant [37 x i8] c"\0A/* Define the scaling structure */\0A\00", align 1
@.str.225 = private unnamed_addr constant [12 x i8] c"%sscaling_D\00", align 1
@.str.226 = private unnamed_addr constant [12 x i8] c"%sscaling_E\00", align 1
@.str.227 = private unnamed_addr constant [15 x i8] c"%sscaling_Dinv\00", align 1
@.str.228 = private unnamed_addr constant [15 x i8] c"%sscaling_Einv\00", align 1
@.str.229 = private unnamed_addr constant [27 x i8] c"OSQPScaling %sscaling = {\0A\00", align 1
@.str.230 = private unnamed_addr constant [17 x i8] c"  &%sscaling_D,\0A\00", align 1
@.str.231 = private unnamed_addr constant [17 x i8] c"  &%sscaling_E,\0A\00", align 1
@.str.232 = private unnamed_addr constant [20 x i8] c"  &%sscaling_Dinv,\0A\00", align 1
@.str.233 = private unnamed_addr constant [19 x i8] c"  &%sscaling_Einv\0A\00", align 1

; Function Attrs: nounwind uwtable
define internal i64 @write_scaling(ptr noundef %0, ptr noundef %1, ptr noundef %2) #0 {
  %4 = alloca i64, align 8
  %5 = alloca ptr, align 8
  %6 = alloca ptr, align 8
  %7 = alloca ptr, align 8
  %8 = alloca i64, align 8
  %9 = alloca [255 x i8], align 16
  store ptr %0, ptr %5, align 8
  store ptr %1, ptr %6, align 8
  store ptr %2, ptr %7, align 8
  store i64 0, ptr %8, align 8
  %10 = load ptr, ptr %6, align 8
  %11 = icmp ne ptr %10, null
  br i1 %11, label %14, label %12

12:                                               ; preds = %3
  %13 = call i64 @_osqp_error(i32 noundef 6, ptr noundef @__func__.write_scaling)
  store i64 %13, ptr %4, align 8
  br label %109

14:                                               ; preds = %3
  %15 = load ptr, ptr %5, align 8
  %16 = call i32 (ptr, ptr, ...) @fprintf(ptr noundef %15, ptr noundef @.str.224) #4
  %17 = getelementptr inbounds [255 x i8], ptr %9, i64 0, i64 0
  %18 = load ptr, ptr %7, align 8
  %19 = call i32 (ptr, ptr, ...) @sprintf(ptr noundef %17, ptr noundef @.str.225, ptr noundef %18) #4
  %20 = load ptr, ptr %5, align 8
  %21 = load ptr, ptr %6, align 8
  %22 = getelementptr inbounds %struct.OSQPScaling, ptr %21, i32 0, i32 1
  %23 = load ptr, ptr %22, align 8
  %24 = getelementptr inbounds [255 x i8], ptr %9, i64 0, i64 0
  %25 = call i64 @write_OSQPVectorf(ptr noundef %20, ptr noundef %23, ptr noundef %24)
  store i64 %25, ptr %8, align 8
  %26 = load i64, ptr %8, align 8
  %27 = icmp ne i64 %26, 0
  br i1 %27, label %28, label %32

28:                                               ; preds = %14
  %29 = load i64, ptr %8, align 8
  %30 = trunc i64 %29 to i32
  %31 = call i64 @_osqp_error_line(i32 noundef %30, ptr noundef @__func__.write_scaling, ptr noundef @.str.86, i64 noundef 284)
  store i64 %31, ptr %4, align 8
  br label %109

32:                                               ; preds = %14
  %33 = getelementptr inbounds [255 x i8], ptr %9, i64 0, i64 0
  %34 = load ptr, ptr %7, align 8
  %35 = call i32 (ptr, ptr, ...) @sprintf(ptr noundef %33, ptr noundef @.str.226, ptr noundef %34) #4
  %36 = load ptr, ptr %5, align 8
  %37 = load ptr, ptr %6, align 8
  %38 = getelementptr inbounds %struct.OSQPScaling, ptr %37, i32 0, i32 2
  %39 = load ptr, ptr %38, align 8
  %40 = getelementptr inbounds [255 x i8], ptr %9, i64 0, i64 0
  %41 = call i64 @write_OSQPVectorf(ptr noundef %36, ptr noundef %39, ptr noundef %40)
  store i64 %41, ptr %8, align 8
  %42 = load i64, ptr %8, align 8
  %43 = icmp ne i64 %42, 0
  br i1 %43, label %44, label %48

44:                                               ; preds = %32
  %45 = load i64, ptr %8, align 8
  %46 = trunc i64 %45 to i32
  %47 = call i64 @_osqp_error_line(i32 noundef %46, ptr noundef @__func__.write_scaling, ptr noundef @.str.86, i64 noundef 286)
  store i64 %47, ptr %4, align 8
  br label %109

48:                                               ; preds = %32
  %49 = getelementptr inbounds [255 x i8], ptr %9, i64 0, i64 0
  %50 = load ptr, ptr %7, align 8
  %51 = call i32 (ptr, ptr, ...) @sprintf(ptr noundef %49, ptr noundef @.str.227, ptr noundef %50) #4
  %52 = load ptr, ptr %5, align 8
  %53 = load ptr, ptr %6, align 8
  %54 = getelementptr inbounds %struct.OSQPScaling, ptr %53, i32 0, i32 4
  %55 = load ptr, ptr %54, align 8
  %56 = getelementptr inbounds [255 x i8], ptr %9, i64 0, i64 0
  %57 = call i64 @write_OSQPVectorf(ptr noundef %52, ptr noundef %55, ptr noundef %56)
  store i64 %57, ptr %8, align 8
  %58 = load i64, ptr %8, align 8
  %59 = icmp ne i64 %58, 0
  br i1 %59, label %60, label %64

60:                                               ; preds = %48
  %61 = load i64, ptr %8, align 8
  %62 = trunc i64 %61 to i32
  %63 = call i64 @_osqp_error_line(i32 noundef %62, ptr noundef @__func__.write_scaling, ptr noundef @.str.86, i64 noundef 288)
  store i64 %63, ptr %4, align 8
  br label %109

64:                                               ; preds = %48
  %65 = getelementptr inbounds [255 x i8], ptr %9, i64 0, i64 0
  %66 = load ptr, ptr %7, align 8
  %67 = call i32 (ptr, ptr, ...) @sprintf(ptr noundef %65, ptr noundef @.str.228, ptr noundef %66) #4
  %68 = load ptr, ptr %5, align 8
  %69 = load ptr, ptr %6, align 8
  %70 = getelementptr inbounds %struct.OSQPScaling, ptr %69, i32 0, i32 5
  %71 = load ptr, ptr %70, align 8
  %72 = getelementptr inbounds [255 x i8], ptr %9, i64 0, i64 0
  %73 = call i64 @write_OSQPVectorf(ptr noundef %68, ptr noundef %71, ptr noundef %72)
  store i64 %73, ptr %8, align 8
  %74 = load i64, ptr %8, align 8
  %75 = icmp ne i64 %74, 0
  br i1 %75, label %76, label %80

76:                                               ; preds = %64
  %77 = load i64, ptr %8, align 8
  %78 = trunc i64 %77 to i32
  %79 = call i64 @_osqp_error_line(i32 noundef %78, ptr noundef @__func__.write_scaling, ptr noundef @.str.86, i64 noundef 290)
  store i64 %79, ptr %4, align 8
  br label %109

80:                                               ; preds = %64
  %81 = load ptr, ptr %5, align 8
  %82 = load ptr, ptr %7, align 8
  %83 = call i32 (ptr, ptr, ...) @fprintf(ptr noundef %81, ptr noundef @.str.229, ptr noundef %82) #4
  %84 = load ptr, ptr %5, align 8
  %85 = load ptr, ptr %6, align 8
  %86 = getelementptr inbounds %struct.OSQPScaling, ptr %85, i32 0, i32 0
  %87 = load double, ptr %86, align 8
  %88 = call i32 (ptr, ptr, ...) @fprintf(ptr noundef %84, ptr noundef @.str.65, double noundef %87) #4
  %89 = load ptr, ptr %5, align 8
  %90 = load ptr, ptr %7, align 8
  %91 = call i32 (ptr, ptr, ...) @fprintf(ptr noundef %89, ptr noundef @.str.230, ptr noundef %90) #4
  %92 = load ptr, ptr %5, align 8
  %93 = load ptr, ptr %7, align 8
  %94 = call i32 (ptr, ptr, ...) @fprintf(ptr noundef %92, ptr noundef @.str.231, ptr noundef %93) #4
  %95 = load ptr, ptr %5, align 8
  %96 = load ptr, ptr %6, align 8
  %97 = getelementptr inbounds %struct.OSQPScaling, ptr %96, i32 0, i32 3
  %98 = load double, ptr %97, align 8
  %99 = call i32 (ptr, ptr, ...) @fprintf(ptr noundef %95, ptr noundef @.str.65, double noundef %98) #4
  %100 = load ptr, ptr %5, align 8
  %101 = load ptr, ptr %7, align 8
  %102 = call i32 (ptr, ptr, ...) @fprintf(ptr noundef %100, ptr noundef @.str.232, ptr noundef %101) #4
  %103 = load ptr, ptr %5, align 8
  %104 = load ptr, ptr %7, align 8
  %105 = call i32 (ptr, ptr, ...) @fprintf(ptr noundef %103, ptr noundef @.str.233, ptr noundef %104) #4
  %106 = load ptr, ptr %5, align 8
  %107 = call i32 (ptr, ptr, ...) @fprintf(ptr noundef %106, ptr noundef @.str.67) #4
  %108 = load i64, ptr %8, align 8
  store i64 %108, ptr %4, align 8
  br label %109

109:                                              ; preds = %80, %76, %60, %44, %28, %12
  %110 = load i64, ptr %4, align 8
  ret i64 %110
}