; Function Attrs: nounwind uwtable
define internal fastcc i64 @write_scaling(ptr nocapture noundef %0, ptr noundef readonly %1, ptr noundef %2) unnamed_addr #0 {
  %4 = alloca [255 x i8], align 16
  %.not = icmp eq ptr %1, null
  br i1 %.not, label %5, label %7

5:                                                ; preds = %3
  %6 = tail call i64 @_osqp_error(i32 noundef 6, ptr noundef nonnull @__func__.write_scaling) #8
  br label %52

7:                                                ; preds = %3
  %8 = tail call i64 @fwrite(ptr nonnull @.str.224, i64 36, i64 1, ptr %0)
  %9 = call i32 (ptr, ptr, ...) @sprintf(ptr noundef nonnull dereferenceable(1) %4, ptr noundef nonnull dereferenceable(1) @.str.225, ptr noundef %2) #8
  %10 = getelementptr inbounds i8, ptr %1, i64 8
  %11 = load ptr, ptr %10, align 8
  %12 = call fastcc i64 @write_OSQPVectorf(ptr noundef %0, ptr noundef %11, ptr noundef nonnull %4), !range !6
  %.not43 = icmp eq i64 %12, 0
  br i1 %.not43, label %16, label %13

13:                                               ; preds = %7
  %14 = trunc nuw nsw i64 %12 to i32
  %15 = call i64 @_osqp_error_line(i32 noundef %14, ptr noundef nonnull @__func__.write_scaling, ptr noundef nonnull @.str.86, i64 noundef 284) #8
  br label %52

16:                                               ; preds = %7
  %17 = call i32 (ptr, ptr, ...) @sprintf(ptr noundef nonnull dereferenceable(1) %4, ptr noundef nonnull dereferenceable(1) @.str.226, ptr noundef %2) #8
  %18 = getelementptr inbounds i8, ptr %1, i64 16
  %19 = load ptr, ptr %18, align 8
  %20 = call fastcc i64 @write_OSQPVectorf(ptr noundef %0, ptr noundef %19, ptr noundef nonnull %4), !range !6
  %.not44 = icmp eq i64 %20, 0
  br i1 %.not44, label %24, label %21

21:                                               ; preds = %16
  %22 = trunc nuw nsw i64 %20 to i32
  %23 = call i64 @_osqp_error_line(i32 noundef %22, ptr noundef nonnull @__func__.write_scaling, ptr noundef nonnull @.str.86, i64 noundef 286) #8
  br label %52

24:                                               ; preds = %16
  %25 = call i32 (ptr, ptr, ...) @sprintf(ptr noundef nonnull dereferenceable(1) %4, ptr noundef nonnull dereferenceable(1) @.str.227, ptr noundef %2) #8
  %26 = getelementptr inbounds i8, ptr %1, i64 32
  %27 = load ptr, ptr %26, align 8
  %28 = call fastcc i64 @write_OSQPVectorf(ptr noundef %0, ptr noundef %27, ptr noundef nonnull %4), !range !6
  %.not45 = icmp eq i64 %28, 0
  br i1 %.not45, label %32, label %29

29:                                               ; preds = %24
  %30 = trunc nuw nsw i64 %28 to i32
  %31 = call i64 @_osqp_error_line(i32 noundef %30, ptr noundef nonnull @__func__.write_scaling, ptr noundef nonnull @.str.86, i64 noundef 288) #8
  br label %52

32:                                               ; preds = %24
  %33 = call i32 (ptr, ptr, ...) @sprintf(ptr noundef nonnull dereferenceable(1) %4, ptr noundef nonnull dereferenceable(1) @.str.228, ptr noundef %2) #8
  %34 = getelementptr inbounds i8, ptr %1, i64 40
  %35 = load ptr, ptr %34, align 8
  %36 = call fastcc i64 @write_OSQPVectorf(ptr noundef %0, ptr noundef %35, ptr noundef nonnull %4), !range !6
  %.not46 = icmp eq i64 %36, 0
  br i1 %.not46, label %40, label %37

37:                                               ; preds = %32
  %38 = trunc nuw nsw i64 %36 to i32
  %39 = call i64 @_osqp_error_line(i32 noundef %38, ptr noundef nonnull @__func__.write_scaling, ptr noundef nonnull @.str.86, i64 noundef 290) #8
  br label %52

40:                                               ; preds = %32
  %41 = call i32 (ptr, ptr, ...) @fprintf(ptr noundef %0, ptr noundef nonnull @.str.229, ptr noundef %2) #8
  %42 = load double, ptr %1, align 8
  %43 = call i32 (ptr, ptr, ...) @fprintf(ptr noundef %0, ptr noundef nonnull @.str.65, double noundef %42) #8
  %44 = call i32 (ptr, ptr, ...) @fprintf(ptr noundef %0, ptr noundef nonnull @.str.230, ptr noundef %2) #8
  %45 = call i32 (ptr, ptr, ...) @fprintf(ptr noundef %0, ptr noundef nonnull @.str.231, ptr noundef %2) #8
  %46 = getelementptr inbounds i8, ptr %1, i64 24
  %47 = load double, ptr %46, align 8
  %48 = call i32 (ptr, ptr, ...) @fprintf(ptr noundef %0, ptr noundef nonnull @.str.65, double noundef %47) #8
  %49 = call i32 (ptr, ptr, ...) @fprintf(ptr noundef %0, ptr noundef nonnull @.str.232, ptr noundef %2) #8
  %50 = call i32 (ptr, ptr, ...) @fprintf(ptr noundef %0, ptr noundef nonnull @.str.233, ptr noundef %2) #8
  %51 = call i64 @fwrite(ptr nonnull @.str.67, i64 4, i64 1, ptr %0)
  br label %52

52:                                               ; preds = %40, %37, %29, %21, %13, %5
  %.0 = phi i64 [ %15, %13 ], [ %23, %21 ], [ %31, %29 ], [ %39, %37 ], [ 0, %40 ], [ %6, %5 ]
  ret i64 %.0
}